ccopy_reg
_reconstructor
p0
(caccount_manage
account
p1
c__builtin__
object
p2
Ntp3
Rp4
(dp5
Vusername
p6
Vdu
p7
sVemoji_you_have
p8
(lp9
L0L
aL2L
aL1L
aL0L
aL1L
aL0L
aL0L
asVpassword
p10
V123
p11
sVpoints
p12
L50L
sb.