ccopy_reg
_reconstructor
p0
(caccount_manage
account
p1
c__builtin__
object
p2
Ntp3
Rp4
(dp5
Vemoji_you_have
p6
(lp7
L-2L
aL6L
aL0L
aL0L
aL0L
aL0L
aL0L
asVpoints
p8
F16
sVpassword
p9
V123
p10
sVusername
p11
Vdu
p12
sb.