ccopy_reg
_reconstructor
p0
(caccount_manage
account
p1
c__builtin__
object
p2
Ntp3
Rp4
(dp5
Vpassword
p6
V123
p7
sVusername
p8
Vdu
p9
sVemoji_you_have
p10
(lp11
L-2L
aL0L
aL0L
aL0L
aL0L
aL0L
aL0L
asVpoints
p12
L110L
sb.