ccopy_reg
_reconstructor
p0
(caccount_manage
account
p1
c__builtin__
object
p2
Ntp3
Rp4
(dp5
Vpoints
p6
L110L
sVpassword
p7
V123
p8
sVemoji_you_have
p9
(lp10
L-2L
aL0L
aL0L
aL0L
aL0L
aL0L
aL0L
asVusername
p11
Vdu
p12
sb.