ccopy_reg
_reconstructor
p0
(caccount_manage
account
p1
c__builtin__
object
p2
Ntp3
Rp4
(dp5
Vpoints
p6
L100L
sVemoji_you_have
p7
(lp8
L-2L
aL0L
aL4L
aL0L
aL2L
aL0L
aL0L
asVpassword
p9
V123
p10
sVusername
p11
Vdu
p12
sb.