ccopy_reg
_reconstructor
p0
(caccount_manage
account
p1
c__builtin__
object
p2
Ntp3
Rp4
(dp5
Vemoji_you_have
p6
(lp7
L-2L
aL0L
aL4L
aL0L
aL2L
aL0L
aL0L
asVusername
p8
Vdu
p9
sVpoints
p10
L100L
sVpassword
p11
V123
p12
sb.