ccopy_reg
_reconstructor
p0
(caccount_manage
account
p1
c__builtin__
object
p2
Ntp3
Rp4
(dp5
Vpoints
p6
F17
sVusername
p7
Vdu2
p8
sVpassword
p9
V123
p10
sVemoji_you_have
p11
(lp12
L0L
aL0L
aL0L
aL0L
aL0L
aL0L
aL0L
asb.