ccopy_reg
_reconstructor
p0
(caccount_manage
account
p1
c__builtin__
object
p2
Ntp3
Rp4
(dp5
Vusername
p6
Vgarry
p7
sVpassword
p8
V1234
p9
sVemoji_you_have
p10
(lp11
L0L
aL0L
aL0L
aL0L
aL0L
aL0L
aL0L
asVpoints
p12
L0L
sb.