ccopy_reg
_reconstructor
p0
(caccount_manage
account
p1
c__builtin__
object
p2
Ntp3
Rp4
(dp5
Vpassword
p6
V1234
p7
sVpoints
p8
L0L
sVusername
p9
Vgarry
p10
sVemoji_you_have
p11
(lp12
L0L
aL0L
aL0L
aL0L
aL0L
aL0L
aL0L
asb.