ccopy_reg
_reconstructor
p0
(c__main__
account
p1
c__builtin__
object
p2
Ntp3
Rp4
(dp5
Vpoints
p6
L0L
sVemoji_you_have
p7
(lp8
L0L
aL0L
aL0L
aL0L
aL0L
aL0L
aL0L
asVusername
p9
VLibby
p10
sVpassword
p11
VLibby123
p12
sb.