ccopy_reg
_reconstructor
p0
(caccount_manage
account
p1
c__builtin__
object
p2
Ntp3
Rp4
(dp5
Vemoji_you_have
p6
(lp7
L0L
aL0L
aL0L
aL0L
aL0L
aL0L
aL0L
asVusername
p8
VLibby
p9
sVpassword
p10
VLibby123
p11
sVpoints
p12
L0L
sb.